(lp0
(lp1
S'nClasse'
p2
aS'IR'
p3
aS'RMP'
p4
aS'RH'
p5
aS'ST'
p6
aS'DTFS'
p7
aS'SA'
p8
aS'SD'
p9
aS'fAHP'
p10
aa(lp11
I1
aI2
aI3
aI4
aI5
aI6
aI7
aI8
aI9
aa(lp12
I1
aI2
aI3
aI4
aI5
aI6
aI7
aI8
aI9
aa(lp13
I1
aI2
aI3
aI4
aI5
aI6
aI7
aI8
aI9
aa(lp14
I1
aI2
aI3
aI4
aI5
aI6
aI7
aI8
aI9
aa(lp15
I1
aI2
aI3
aI4
aI5
aI6
aI7
aI8
aI9
aa(lp16
I1
aI2
aI3
aI4
aI5
aI6
aI7
aI8
aI9
aa(lp17
I1
aI2
aI3
aI4
aI5
aI6
aI7
aI8
aI9
aa.